; Function Attrs: mustprogress nounwind uwtable
define hidden void @_ZN2cv11bioinspired17BasicRetinaFilterD2Ev(ptr noundef nonnull readonly align 8 captures(none) dereferenceable(168) %0) unnamed_addr #4 align 2 personality ptr @__gxx_personality_v0 {
  %2 = getelementptr inbounds nuw i8, ptr %0, i64 128
  %3 = load ptr, ptr %2, align 8, !tbaa !10
  tail call void @_ZdlPv(ptr noundef %3) #19
  %4 = getelementptr inbounds nuw i8, ptr %0, i64 112
  %5 = load ptr, ptr %4, align 8, !tbaa !10
  tail call void @_ZdlPv(ptr noundef %5) #19
  %6 = getelementptr inbounds nuw i8, ptr %0, i64 96
  %7 = load ptr, ptr %6, align 8, !tbaa !10
  tail call void @_ZdlPv(ptr noundef %7) #19
  %8 = getelementptr inbounds nuw i8, ptr %0, i64 72
  %9 = load ptr, ptr %8, align 8, !tbaa !10
  tail call void @_ZdlPv(ptr noundef %9) #19
  %10 = getelementptr inbounds nuw i8, ptr %0, i64 16
  %11 = load ptr, ptr %10, align 8, !tbaa !10
  tail call void @_ZdlPv(ptr noundef %11) #19
  ret void
}